target datalayout = "e-m:e-p270:32:32-p271:32:32-p272:64:64-i64:64-i128:128-f80:128-n8:16:32:64-S128"
target triple = "x86_64-pc-linux-gnu"

%struct.sio_par = type { i32, i32, i32, i32, i32, i32, i32, i32, i32, i32, i32, i32, [3 x i32], i32 }
%struct.PaSndioStream = type { %struct.PaUtilStreamRepresentation, %struct.PaUtilBufferProcessor, ptr, %struct.sio_par, i32, i32, i32, i64, ptr, ptr, i64, i64, i64 }
%struct.PaUtilStreamRepresentation = type { i64, ptr, ptr, ptr, ptr, ptr, %struct.PaStreamInfo }
%struct.PaStreamInfo = type { i32, double, double, double }
%struct.PaUtilBufferProcessor = type { i64, i64, i32, i32, i32, i32, i64, i32, i32, i32, i32, ptr, ptr, i32, i32, i32, i32, ptr, ptr, i64, i64, ptr, ptr, i64, ptr, ptr, i64, ptr, i64, i32, [2 x i64], [2 x ptr], i32, [2 x i64], [2 x ptr], %struct.PaUtilTriangularDitherGenerator, double, ptr, ptr }
%struct.PaUtilTriangularDitherGenerator = type { i32, i32, i32 }
%struct.PaStreamCallbackTimeInfo = type { double, double, double }

; Function Attrs: nounwind uwtable
define internal ptr @sndioThread(ptr noundef %0) #0 {
  %2 = alloca ptr, align 8
  %3 = alloca ptr, align 8
  %4 = alloca %struct.PaStreamCallbackTimeInfo, align 8
  %5 = alloca ptr, align 8
  %6 = alloca i32, align 4
  %7 = alloca i32, align 4
  %8 = alloca i32, align 4
  %9 = alloca i32, align 4
  %10 = alloca i32, align 4
  store ptr %0, ptr %2, align 8
  %11 = load ptr, ptr %2, align 8
  store ptr %11, ptr %3, align 8
  %12 = load ptr, ptr %3, align 8
  %13 = getelementptr inbounds nuw %struct.PaSndioStream, ptr %12, i32 0, i32 3
  %14 = getelementptr inbounds nuw %struct.sio_par, ptr %13, i32 0, i32 10
  %15 = load i32, ptr %14, align 8
  %16 = load ptr, ptr %3, align 8
  %17 = getelementptr inbounds nuw %struct.PaSndioStream, ptr %16, i32 0, i32 3
  %18 = getelementptr inbounds nuw %struct.sio_par, ptr %17, i32 0, i32 5
  %19 = load i32, ptr %18, align 4
  %20 = mul i32 %15, %19
  %21 = load ptr, ptr %3, align 8
  %22 = getelementptr inbounds nuw %struct.PaSndioStream, ptr %21, i32 0, i32 3
  %23 = getelementptr inbounds nuw %struct.sio_par, ptr %22, i32 0, i32 1
  %24 = load i32, ptr %23, align 4
  %25 = mul i32 %20, %24
  store i32 %25, ptr %7, align 4
  %26 = load ptr, ptr %3, align 8
  %27 = getelementptr inbounds nuw %struct.PaSndioStream, ptr %26, i32 0, i32 3
  %28 = getelementptr inbounds nuw %struct.sio_par, ptr %27, i32 0, i32 10
  %29 = load i32, ptr %28, align 8
  %30 = load ptr, ptr %3, align 8
  %31 = getelementptr inbounds nuw %struct.PaSndioStream, ptr %30, i32 0, i32 3
  %32 = getelementptr inbounds nuw %struct.sio_par, ptr %31, i32 0, i32 6
  %33 = load i32, ptr %32, align 8
  %34 = mul i32 %29, %33
  %35 = load ptr, ptr %3, align 8
  %36 = getelementptr inbounds nuw %struct.PaSndioStream, ptr %35, i32 0, i32 3
  %37 = getelementptr inbounds nuw %struct.sio_par, ptr %36, i32 0, i32 1
  %38 = load i32, ptr %37, align 4
  %39 = mul i32 %34, %38
  store i32 %39, ptr %8, align 4
  br label %40

40:                                               ; preds = %231, %1
  %41 = load ptr, ptr %3, align 8
  %42 = getelementptr inbounds nuw %struct.PaSndioStream, ptr %41, i32 0, i32 5
  %43 = load i32, ptr %42, align 4
  %44 = icmp ne i32 %43, 0
  %45 = xor i1 %44, true
  br i1 %45, label %46, label %232

46:                                               ; preds = %40
  %47 = load ptr, ptr %3, align 8
  %48 = getelementptr inbounds nuw %struct.PaSndioStream, ptr %47, i32 0, i32 4
  %49 = load i32, ptr %48, align 8
  %50 = and i32 %49, 2
  %51 = icmp ne i32 %50, 0
  br i1 %51, label %52, label %101

52:                                               ; preds = %46
  %53 = load i32, ptr %7, align 4
  store i32 %53, ptr %6, align 4
  %54 = load ptr, ptr %3, align 8
  %55 = getelementptr inbounds nuw %struct.PaSndioStream, ptr %54, i32 0, i32 8
  %56 = load ptr, ptr %55, align 8
  store ptr %56, ptr %5, align 8
  br label %57

57:                                               ; preds = %72, %52
  %58 = load i32, ptr %6, align 4
  %59 = icmp ugt i32 %58, 0
  br i1 %59, label %60, label %80

60:                                               ; preds = %57
  %61 = load ptr, ptr %3, align 8
  %62 = getelementptr inbounds nuw %struct.PaSndioStream, ptr %61, i32 0, i32 2
  %63 = load ptr, ptr %62, align 8
  %64 = load ptr, ptr %5, align 8
  %65 = load i32, ptr %6, align 4
  %66 = zext i32 %65 to i64
  %67 = call i64 @sio_read(ptr noundef %63, ptr noundef %64, i64 noundef %66)
  %68 = trunc i64 %67 to i32
  store i32 %68, ptr %9, align 4
  %69 = load i32, ptr %9, align 4
  %70 = icmp eq i32 %69, 0
  br i1 %70, label %71, label %72

71:                                               ; preds = %60
  br label %233

72:                                               ; preds = %60
  %73 = load i32, ptr %9, align 4
  %74 = load i32, ptr %6, align 4
  %75 = sub i32 %74, %73
  store i32 %75, ptr %6, align 4
  %76 = load i32, ptr %9, align 4
  %77 = load ptr, ptr %5, align 8
  %78 = sext i32 %76 to i64
  %79 = getelementptr inbounds i8, ptr %77, i64 %78
  store ptr %79, ptr %5, align 8
  br label %57, !llvm.loop !12

80:                                               ; preds = %57
  %81 = load ptr, ptr %3, align 8
  %82 = getelementptr inbounds nuw %struct.PaSndioStream, ptr %81, i32 0, i32 3
  %83 = getelementptr inbounds nuw %struct.sio_par, ptr %82, i32 0, i32 10
  %84 = load i32, ptr %83, align 8
  %85 = zext i32 %84 to i64
  %86 = load ptr, ptr %3, align 8
  %87 = getelementptr inbounds nuw %struct.PaSndioStream, ptr %86, i32 0, i32 10
  %88 = load i64, ptr %87, align 8
  %89 = add i64 %88, %85
  store i64 %89, ptr %87, align 8
  %90 = load ptr, ptr %3, align 8
  %91 = getelementptr inbounds nuw %struct.PaSndioStream, ptr %90, i32 0, i32 7
  %92 = load i64, ptr %91, align 8
  %93 = uitofp i64 %92 to double
  %94 = load ptr, ptr %3, align 8
  %95 = getelementptr inbounds nuw %struct.PaSndioStream, ptr %94, i32 0, i32 3
  %96 = getelementptr inbounds nuw %struct.sio_par, ptr %95, i32 0, i32 7
  %97 = load i32, ptr %96, align 4
  %98 = uitofp i32 %97 to double
  %99 = fdiv double %93, %98
  %100 = getelementptr inbounds nuw %struct.PaStreamCallbackTimeInfo, ptr %4, i32 0, i32 0
  store double %99, ptr %100, align 8
  br label %101

101:                                              ; preds = %80, %46
  %102 = load ptr, ptr %3, align 8
  %103 = getelementptr inbounds nuw %struct.PaSndioStream, ptr %102, i32 0, i32 4
  %104 = load i32, ptr %103, align 8
  %105 = and i32 %104, 1
  %106 = icmp ne i32 %105, 0
  br i1 %106, label %107, label %125

107:                                              ; preds = %101
  %108 = load ptr, ptr %3, align 8
  %109 = getelementptr inbounds nuw %struct.PaSndioStream, ptr %108, i32 0, i32 7
  %110 = load i64, ptr %109, align 8
  %111 = load ptr, ptr %3, align 8
  %112 = getelementptr inbounds nuw %struct.PaSndioStream, ptr %111, i32 0, i32 3
  %113 = getelementptr inbounds nuw %struct.sio_par, ptr %112, i32 0, i32 8
  %114 = load i32, ptr %113, align 8
  %115 = zext i32 %114 to i64
  %116 = add i64 %110, %115
  %117 = uitofp i64 %116 to double
  %118 = load ptr, ptr %3, align 8
  %119 = getelementptr inbounds nuw %struct.PaSndioStream, ptr %118, i32 0, i32 3
  %120 = getelementptr inbounds nuw %struct.sio_par, ptr %119, i32 0, i32 7
  %121 = load i32, ptr %120, align 4
  %122 = uitofp i32 %121 to double
  %123 = fdiv double %117, %122
  %124 = getelementptr inbounds nuw %struct.PaStreamCallbackTimeInfo, ptr %4, i32 0, i32 2
  store double %123, ptr %124, align 8
  br label %125

125:                                              ; preds = %107, %101
  %126 = load ptr, ptr %3, align 8
  %127 = getelementptr inbounds nuw %struct.PaSndioStream, ptr %126, i32 0, i32 7
  %128 = load i64, ptr %127, align 8
  %129 = uitofp i64 %128 to double
  %130 = load ptr, ptr %3, align 8
  %131 = getelementptr inbounds nuw %struct.PaSndioStream, ptr %130, i32 0, i32 3
  %132 = getelementptr inbounds nuw %struct.sio_par, ptr %131, i32 0, i32 7
  %133 = load i32, ptr %132, align 4
  %134 = uitofp i32 %133 to double
  %135 = fdiv double %129, %134
  %136 = getelementptr inbounds nuw %struct.PaStreamCallbackTimeInfo, ptr %4, i32 0, i32 1
  store double %135, ptr %136, align 8
  %137 = load ptr, ptr %3, align 8
  %138 = getelementptr inbounds nuw %struct.PaSndioStream, ptr %137, i32 0, i32 1
  call void @PaUtil_BeginBufferProcessing(ptr noundef %138, ptr noundef %4, i64 noundef 0)
  %139 = load ptr, ptr %3, align 8
  %140 = getelementptr inbounds nuw %struct.PaSndioStream, ptr %139, i32 0, i32 4
  %141 = load i32, ptr %140, align 8
  %142 = and i32 %141, 1
  %143 = icmp ne i32 %142, 0
  br i1 %143, label %144, label %161

144:                                              ; preds = %125
  %145 = load ptr, ptr %3, align 8
  %146 = getelementptr inbounds nuw %struct.PaSndioStream, ptr %145, i32 0, i32 1
  %147 = load ptr, ptr %3, align 8
  %148 = getelementptr inbounds nuw %struct.PaSndioStream, ptr %147, i32 0, i32 3
  %149 = getelementptr inbounds nuw %struct.sio_par, ptr %148, i32 0, i32 10
  %150 = load i32, ptr %149, align 8
  %151 = zext i32 %150 to i64
  call void @PaUtil_SetOutputFrameCount(ptr noundef %146, i64 noundef %151)
  %152 = load ptr, ptr %3, align 8
  %153 = getelementptr inbounds nuw %struct.PaSndioStream, ptr %152, i32 0, i32 1
  %154 = load ptr, ptr %3, align 8
  %155 = getelementptr inbounds nuw %struct.PaSndioStream, ptr %154, i32 0, i32 9
  %156 = load ptr, ptr %155, align 8
  %157 = load ptr, ptr %3, align 8
  %158 = getelementptr inbounds nuw %struct.PaSndioStream, ptr %157, i32 0, i32 3
  %159 = getelementptr inbounds nuw %struct.sio_par, ptr %158, i32 0, i32 6
  %160 = load i32, ptr %159, align 8
  call void @PaUtil_SetInterleavedOutputChannels(ptr noundef %153, i32 noundef 0, ptr noundef %156, i32 noundef %160)
  br label %161

161:                                              ; preds = %144, %125
  %162 = load ptr, ptr %3, align 8
  %163 = getelementptr inbounds nuw %struct.PaSndioStream, ptr %162, i32 0, i32 4
  %164 = load i32, ptr %163, align 8
  %165 = and i32 %164, 2
  %166 = icmp ne i32 %165, 0
  br i1 %166, label %167, label %184

167:                                              ; preds = %161
  %168 = load ptr, ptr %3, align 8
  %169 = getelementptr inbounds nuw %struct.PaSndioStream, ptr %168, i32 0, i32 1
  %170 = load ptr, ptr %3, align 8
  %171 = getelementptr inbounds nuw %struct.PaSndioStream, ptr %170, i32 0, i32 3
  %172 = getelementptr inbounds nuw %struct.sio_par, ptr %171, i32 0, i32 10
  %173 = load i32, ptr %172, align 8
  %174 = zext i32 %173 to i64
  call void @PaUtil_SetInputFrameCount(ptr noundef %169, i64 noundef %174)
  %175 = load ptr, ptr %3, align 8
  %176 = getelementptr inbounds nuw %struct.PaSndioStream, ptr %175, i32 0, i32 1
  %177 = load ptr, ptr %3, align 8
  %178 = getelementptr inbounds nuw %struct.PaSndioStream, ptr %177, i32 0, i32 8
  %179 = load ptr, ptr %178, align 8
  %180 = load ptr, ptr %3, align 8
  %181 = getelementptr inbounds nuw %struct.PaSndioStream, ptr %180, i32 0, i32 3
  %182 = getelementptr inbounds nuw %struct.sio_par, ptr %181, i32 0, i32 5
  %183 = load i32, ptr %182, align 4
  call void @PaUtil_SetInterleavedInputChannels(ptr noundef %176, i32 noundef 0, ptr noundef %179, i32 noundef %183)
  br label %184

184:                                              ; preds = %167, %161
  store i32 0, ptr %10, align 4
  %185 = load ptr, ptr %3, align 8
  %186 = getelementptr inbounds nuw %struct.PaSndioStream, ptr %185, i32 0, i32 1
  %187 = call i64 @PaUtil_EndBufferProcessing(ptr noundef %186, ptr noundef %10)
  %188 = trunc i64 %187 to i32
  store i32 %188, ptr %9, align 4
  %189 = load i32, ptr %9, align 4
  %190 = load ptr, ptr %3, align 8
  %191 = getelementptr inbounds nuw %struct.PaSndioStream, ptr %190, i32 0, i32 3
  %192 = getelementptr inbounds nuw %struct.sio_par, ptr %191, i32 0, i32 10
  %193 = load i32, ptr %192, align 8
  %194 = icmp ne i32 %189, %193
  br i1 %194, label %195, label %196

195:                                              ; preds = %184
  br label %196

196:                                              ; preds = %195, %184
  %197 = load i32, ptr %10, align 4
  %198 = icmp ne i32 %197, 0
  br i1 %198, label %199, label %200

199:                                              ; preds = %196
  br label %232

200:                                              ; preds = %196
  %201 = load ptr, ptr %3, align 8
  %202 = getelementptr inbounds nuw %struct.PaSndioStream, ptr %201, i32 0, i32 4
  %203 = load i32, ptr %202, align 8
  %204 = and i32 %203, 1
  %205 = icmp ne i32 %204, 0
  br i1 %205, label %206, label %231

206:                                              ; preds = %200
  %207 = load ptr, ptr %3, align 8
  %208 = getelementptr inbounds nuw %struct.PaSndioStream, ptr %207, i32 0, i32 2
  %209 = load ptr, ptr %208, align 8
  %210 = load ptr, ptr %3, align 8
  %211 = getelementptr inbounds nuw %struct.PaSndioStream, ptr %210, i32 0, i32 9
  %212 = load ptr, ptr %211, align 8
  %213 = load i32, ptr %8, align 4
  %214 = zext i32 %213 to i64
  %215 = call i64 @sio_write(ptr noundef %209, ptr noundef %212, i64 noundef %214)
  %216 = trunc i64 %215 to i32
  store i32 %216, ptr %9, align 4
  %217 = load i32, ptr %9, align 4
  %218 = load i32, ptr %8, align 4
  %219 = icmp ult i32 %217, %218
  br i1 %219, label %220, label %221

220:                                              ; preds = %206
  br label %233

221:                                              ; preds = %206
  %222 = load ptr, ptr %3, align 8
  %223 = getelementptr inbounds nuw %struct.PaSndioStream, ptr %222, i32 0, i32 3
  %224 = getelementptr inbounds nuw %struct.sio_par, ptr %223, i32 0, i32 10
  %225 = load i32, ptr %224, align 8
  %226 = zext i32 %225 to i64
  %227 = load ptr, ptr %3, align 8
  %228 = getelementptr inbounds nuw %struct.PaSndioStream, ptr %227, i32 0, i32 11
  %229 = load i64, ptr %228, align 8
  %230 = add i64 %229, %226
  store i64 %230, ptr %228, align 8
  br label %231

231:                                              ; preds = %221, %200
  br label %40, !llvm.loop !13

232:                                              ; preds = %199, %40
  br label %233

233:                                              ; preds = %232, %220, %71
  %234 = load ptr, ptr %3, align 8
  %235 = getelementptr inbounds nuw %struct.PaSndioStream, ptr %234, i32 0, i32 6
  store i32 0, ptr %235, align 8
  ret ptr null
}