; Function Attrs: nounwind uwtable
define internal noalias noundef ptr @sndioThread(ptr noundef %0) #0 {
  %2 = alloca %struct.PaStreamCallbackTimeInfo, align 8
  %3 = alloca i32, align 4
  %4 = getelementptr inbounds i8, ptr %0, i64 432
  %5 = load i32, ptr %4, align 8
  %6 = getelementptr inbounds i8, ptr %0, i64 412
  %7 = load i32, ptr %6, align 4
  %8 = getelementptr inbounds i8, ptr %0, i64 396
  %9 = load i32, ptr %8, align 4
  %10 = mul i32 %9, %5
  %11 = mul i32 %10, %7
  %12 = getelementptr inbounds i8, ptr %0, i64 416
  %13 = load i32, ptr %12, align 8
  %14 = mul i32 %10, %13
  %15 = getelementptr inbounds nuw i8, ptr %0, i64 460
  %16 = load i32, ptr %15, align 4
  %.not67 = icmp eq i32 %16, 0
  br i1 %.not67, label %.lr.ph69, label %.loopexit

.lr.ph69:                                         ; preds = %1
  %17 = getelementptr inbounds nuw i8, ptr %0, i64 456
  %18 = getelementptr inbounds nuw i8, ptr %0, i64 480
  %.not5764 = icmp eq i32 %11, 0
  %19 = getelementptr inbounds nuw i8, ptr %0, i64 384
  %20 = getelementptr inbounds nuw i8, ptr %0, i64 496
  %21 = getelementptr inbounds nuw i8, ptr %0, i64 472
  %22 = getelementptr inbounds i8, ptr %0, i64 420
  %23 = getelementptr inbounds i8, ptr %0, i64 424
  %24 = getelementptr inbounds nuw i8, ptr %2, i64 16
  %25 = getelementptr inbounds nuw i8, ptr %2, i64 8
  %26 = getelementptr inbounds nuw i8, ptr %0, i64 80
  %27 = getelementptr inbounds nuw i8, ptr %0, i64 488
  %28 = zext i32 %14 to i64
  %29 = getelementptr inbounds nuw i8, ptr %0, i64 504
  br label %30

30:                                               ; preds = %.lr.ph69, %98
  %31 = load i32, ptr %17, align 8
  %32 = and i32 %31, 2
  %.not56 = icmp eq i32 %32, 0
  br i1 %.not56, label %._crit_edge77, label %33

._crit_edge77:                                    ; preds = %30
  %.pre73.pre = load i64, ptr %21, align 8
  %.pre74.pre = load i32, ptr %22, align 4
  br label %53

33:                                               ; preds = %30
  br i1 %.not5764, label %._crit_edge, label %.lr.ph.preheader

.lr.ph.preheader:                                 ; preds = %33
  %34 = load ptr, ptr %18, align 8
  br label %.lr.ph

.lr.ph:                                           ; preds = %.lr.ph.preheader, %40
  %.066 = phi ptr [ %43, %40 ], [ %34, %.lr.ph.preheader ]
  %.05465 = phi i32 [ %41, %40 ], [ %11, %.lr.ph.preheader ]
  %35 = load ptr, ptr %19, align 8
  %36 = zext i32 %.05465 to i64
  %37 = call i64 @sio_read(ptr noundef %35, ptr noundef %.066, i64 noundef %36) #16
  %38 = trunc i64 %37 to i32
  %39 = icmp eq i32 %38, 0
  br i1 %39, label %.loopexit, label %40

40:                                               ; preds = %.lr.ph
  %41 = sub i32 %.05465, %38
  %sext = shl i64 %37, 32
  %42 = ashr exact i64 %sext, 32
  %43 = getelementptr inbounds i8, ptr %.066, i64 %42
  %.not57 = icmp eq i32 %41, 0
  br i1 %.not57, label %._crit_edge.loopexit, label %.lr.ph, !llvm.loop !12

._crit_edge.loopexit:                             ; preds = %40
  %.pre.pre = load i32, ptr %17, align 8
  br label %._crit_edge

._crit_edge:                                      ; preds = %._crit_edge.loopexit, %33
  %.pre = phi i32 [ %.pre.pre, %._crit_edge.loopexit ], [ %31, %33 ]
  %44 = load i32, ptr %4, align 8
  %45 = zext i32 %44 to i64
  %46 = load i64, ptr %20, align 8
  %47 = add i64 %46, %45
  store i64 %47, ptr %20, align 8
  %48 = load i64, ptr %21, align 8
  %49 = uitofp i64 %48 to double
  %50 = load i32, ptr %22, align 4
  %51 = uitofp i32 %50 to double
  %52 = fdiv double %49, %51
  store double %52, ptr %2, align 8
  br label %53

53:                                               ; preds = %._crit_edge77, %._crit_edge
  %.pre74 = phi i32 [ %50, %._crit_edge ], [ %.pre74.pre, %._crit_edge77 ]
  %.pre73 = phi i64 [ %48, %._crit_edge ], [ %.pre73.pre, %._crit_edge77 ]
  %54 = phi i32 [ %.pre, %._crit_edge ], [ %31, %._crit_edge77 ]
  %55 = and i32 %54, 1
  %.not58 = icmp eq i32 %55, 0
  br i1 %.not58, label %._crit_edge80, label %56

._crit_edge80:                                    ; preds = %53
  %.pre81 = uitofp i32 %.pre74 to double
  br label %63

56:                                               ; preds = %53
  %57 = load i32, ptr %23, align 8
  %58 = zext i32 %57 to i64
  %59 = add i64 %.pre73, %58
  %60 = uitofp i64 %59 to double
  %61 = uitofp i32 %.pre74 to double
  %62 = fdiv double %60, %61
  store double %62, ptr %24, align 8
  br label %63

63:                                               ; preds = %._crit_edge80, %56
  %.pre-phi = phi double [ %.pre81, %._crit_edge80 ], [ %61, %56 ]
  %64 = uitofp i64 %.pre73 to double
  %65 = fdiv double %64, %.pre-phi
  store double %65, ptr %25, align 8
  call void @PaUtil_BeginBufferProcessing(ptr noundef nonnull %26, ptr noundef nonnull %2, i64 noundef 0) #16
  %66 = load i32, ptr %17, align 8
  %67 = and i32 %66, 1
  %.not59 = icmp eq i32 %67, 0
  br i1 %.not59, label %73, label %68

68:                                               ; preds = %63
  %69 = load i32, ptr %4, align 8
  %70 = zext i32 %69 to i64
  call void @PaUtil_SetOutputFrameCount(ptr noundef nonnull %26, i64 noundef %70) #16
  %71 = load ptr, ptr %27, align 8
  %72 = load i32, ptr %12, align 8
  call void @PaUtil_SetInterleavedOutputChannels(ptr noundef nonnull %26, i32 noundef 0, ptr noundef %71, i32 noundef %72) #16
  %.pre75 = load i32, ptr %17, align 8
  br label %73

73:                                               ; preds = %68, %63
  %74 = phi i32 [ %.pre75, %68 ], [ %66, %63 ]
  %75 = and i32 %74, 2
  %.not60 = icmp eq i32 %75, 0
  br i1 %.not60, label %81, label %76

76:                                               ; preds = %73
  %77 = load i32, ptr %4, align 8
  %78 = zext i32 %77 to i64
  call void @PaUtil_SetInputFrameCount(ptr noundef nonnull %26, i64 noundef %78) #16
  %79 = load ptr, ptr %18, align 8
  %80 = load i32, ptr %6, align 4
  call void @PaUtil_SetInterleavedInputChannels(ptr noundef nonnull %26, i32 noundef 0, ptr noundef %79, i32 noundef %80) #16
  br label %81

81:                                               ; preds = %76, %73
  store i32 0, ptr %3, align 4
  %82 = call i64 @PaUtil_EndBufferProcessing(ptr noundef nonnull %26, ptr noundef nonnull %3) #16
  %83 = load i32, ptr %3, align 4
  %.not61 = icmp eq i32 %83, 0
  br i1 %.not61, label %84, label %.loopexit

84:                                               ; preds = %81
  %85 = load i32, ptr %17, align 8
  %86 = and i32 %85, 1
  %.not62 = icmp eq i32 %86, 0
  br i1 %.not62, label %98, label %87

87:                                               ; preds = %84
  %88 = load ptr, ptr %19, align 8
  %89 = load ptr, ptr %27, align 8
  %90 = call i64 @sio_write(ptr noundef %88, ptr noundef %89, i64 noundef %28) #16
  %91 = trunc i64 %90 to i32
  %92 = icmp ugt i32 %14, %91
  br i1 %92, label %.loopexit, label %93

93:                                               ; preds = %87
  %94 = load i32, ptr %4, align 8
  %95 = zext i32 %94 to i64
  %96 = load i64, ptr %29, align 8
  %97 = add i64 %96, %95
  store i64 %97, ptr %29, align 8
  br label %98

98:                                               ; preds = %93, %84
  %99 = load i32, ptr %15, align 4
  %.not = icmp eq i32 %99, 0
  br i1 %.not, label %30, label %.loopexit, !llvm.loop !13

.loopexit:                                        ; preds = %87, %81, %98, %.lr.ph, %1
  %100 = getelementptr inbounds nuw i8, ptr %0, i64 464
  store i32 0, ptr %100, align 8
  ret ptr null
}